; Function Attrs: noreturn nounwind uwtable
define void @zend_timeout() local_unnamed_addr #9 {
  fence seq_cst
  store volatile i8 0, ptr getelementptr inbounds (%struct._zend_executor_globals, ptr @executor_globals, i64 0, i32 28), align 1
  fence seq_cst
  tail call fastcc void @zend_set_timeout_ex(i64 noundef 0, i1 noundef zeroext true)
  %1 = load i64, ptr getelementptr inbounds (%struct._zend_executor_globals, ptr @executor_globals, i64 0, i32 45), align 8
  %2 = icmp eq i64 %1, 1
  %3 = select i1 %2, ptr @.str, ptr @.str.13
  tail call void (i32, ptr, ...) @zend_error_noreturn(i32 noundef 1, ptr noundef nonnull @.str.12, i64 noundef %1, ptr noundef nonnull %3) #27
  unreachable
}